target datalayout = "e-m:e-p270:32:32-p271:32:32-p272:64:64-i64:64-i128:128-f80:128-n8:16:32:64-S128"
target triple = "x86_64-pc-linux-gnu"

%struct.TS_tst_info_st = type { ptr, ptr, ptr, ptr, ptr, ptr, i32, ptr, ptr, ptr }
%struct.TS_msg_imprint_st = type { ptr, ptr }
%struct.X509_algor_st = type { ptr, ptr }

@.str = private unnamed_addr constant [37 x i8] c"../openssl/crypto/ts/ts_rsp_verify.c\00", align 1
@__func__.ts_check_imprints = private unnamed_addr constant [18 x i8] c"ts_check_imprints\00", align 1

; Function Attrs: nounwind uwtable
define internal i32 @ts_check_imprints(ptr noundef %0, ptr noundef %1, i32 noundef %2, ptr noundef %3) #0 {
  %5 = alloca ptr, align 8
  %6 = alloca ptr, align 8
  %7 = alloca i32, align 4
  %8 = alloca ptr, align 8
  %9 = alloca ptr, align 8
  %10 = alloca ptr, align 8
  %11 = alloca i32, align 4
  store ptr %0, ptr %5, align 8, !tbaa !78
  store ptr %1, ptr %6, align 8, !tbaa !64
  store i32 %2, ptr %7, align 4, !tbaa !16
  store ptr %3, ptr %8, align 8, !tbaa !57
  call void @llvm.lifetime.start.p0(i64 8, ptr %9) #7
  %12 = load ptr, ptr %8, align 8, !tbaa !57
  %13 = getelementptr inbounds nuw %struct.TS_tst_info_st, ptr %12, i32 0, i32 2
  %14 = load ptr, ptr %13, align 8, !tbaa !98
  store ptr %14, ptr %9, align 8, !tbaa !99
  call void @llvm.lifetime.start.p0(i64 8, ptr %10) #7
  %15 = load ptr, ptr %9, align 8, !tbaa !99
  %16 = getelementptr inbounds nuw %struct.TS_msg_imprint_st, ptr %15, i32 0, i32 0
  %17 = load ptr, ptr %16, align 8, !tbaa !100
  store ptr %17, ptr %10, align 8, !tbaa !78
  call void @llvm.lifetime.start.p0(i64 4, ptr %11) #7
  store i32 0, ptr %11, align 4, !tbaa !16
  %18 = load ptr, ptr %5, align 8, !tbaa !78
  %19 = icmp ne ptr %18, null
  br i1 %19, label %20, label %54

20:                                               ; preds = %4
  %21 = load ptr, ptr %5, align 8, !tbaa !78
  %22 = getelementptr inbounds nuw %struct.X509_algor_st, ptr %21, i32 0, i32 0
  %23 = load ptr, ptr %22, align 8, !tbaa !102
  %24 = load ptr, ptr %10, align 8, !tbaa !78
  %25 = getelementptr inbounds nuw %struct.X509_algor_st, ptr %24, i32 0, i32 0
  %26 = load ptr, ptr %25, align 8, !tbaa !102
  %27 = call i32 @OBJ_cmp(ptr noundef %23, ptr noundef %26)
  %28 = icmp ne i32 %27, 0
  br i1 %28, label %29, label %30

29:                                               ; preds = %20
  br label %74

30:                                               ; preds = %20
  %31 = load ptr, ptr %5, align 8, !tbaa !78
  %32 = getelementptr inbounds nuw %struct.X509_algor_st, ptr %31, i32 0, i32 1
  %33 = load ptr, ptr %32, align 8, !tbaa !104
  %34 = icmp ne ptr %33, null
  br i1 %34, label %35, label %41

35:                                               ; preds = %30
  %36 = load ptr, ptr %5, align 8, !tbaa !78
  %37 = getelementptr inbounds nuw %struct.X509_algor_st, ptr %36, i32 0, i32 1
  %38 = load ptr, ptr %37, align 8, !tbaa !104
  %39 = call i32 @ASN1_TYPE_get(ptr noundef %38)
  %40 = icmp ne i32 %39, 5
  br i1 %40, label %52, label %41

41:                                               ; preds = %35, %30
  %42 = load ptr, ptr %10, align 8, !tbaa !78
  %43 = getelementptr inbounds nuw %struct.X509_algor_st, ptr %42, i32 0, i32 1
  %44 = load ptr, ptr %43, align 8, !tbaa !104
  %45 = icmp ne ptr %44, null
  br i1 %45, label %46, label %53

46:                                               ; preds = %41
  %47 = load ptr, ptr %10, align 8, !tbaa !78
  %48 = getelementptr inbounds nuw %struct.X509_algor_st, ptr %47, i32 0, i32 1
  %49 = load ptr, ptr %48, align 8, !tbaa !104
  %50 = call i32 @ASN1_TYPE_get(ptr noundef %49)
  %51 = icmp ne i32 %50, 5
  br i1 %51, label %52, label %53

52:                                               ; preds = %46, %35
  br label %74

53:                                               ; preds = %46, %41
  br label %54

54:                                               ; preds = %53, %4
  %55 = load i32, ptr %7, align 4, !tbaa !16
  %56 = load ptr, ptr %9, align 8, !tbaa !99
  %57 = getelementptr inbounds nuw %struct.TS_msg_imprint_st, ptr %56, i32 0, i32 1
  %58 = load ptr, ptr %57, align 8, !tbaa !105
  %59 = call i32 @ASN1_STRING_length(ptr noundef %58)
  %60 = icmp eq i32 %55, %59
  br i1 %60, label %61, label %71

61:                                               ; preds = %54
  %62 = load ptr, ptr %6, align 8, !tbaa !64
  %63 = load ptr, ptr %9, align 8, !tbaa !99
  %64 = getelementptr inbounds nuw %struct.TS_msg_imprint_st, ptr %63, i32 0, i32 1
  %65 = load ptr, ptr %64, align 8, !tbaa !105
  %66 = call ptr @ASN1_STRING_get0_data(ptr noundef %65)
  %67 = load i32, ptr %7, align 4, !tbaa !16
  %68 = zext i32 %67 to i64
  %69 = call i32 @memcmp(ptr noundef %62, ptr noundef %66, i64 noundef %68) #8
  %70 = icmp eq i32 %69, 0
  br label %71

71:                                               ; preds = %61, %54
  %72 = phi i1 [ false, %54 ], [ %70, %61 ]
  %73 = zext i1 %72 to i32
  store i32 %73, ptr %11, align 4, !tbaa !16
  br label %74

74:                                               ; preds = %71, %52, %29
  %75 = load i32, ptr %11, align 4, !tbaa !16
  %76 = icmp ne i32 %75, 0
  br i1 %76, label %78, label %77

77:                                               ; preds = %74
  call void @ERR_new()
  call void @ERR_set_debug(ptr noundef @.str, i32 noundef 510, ptr noundef @__func__.ts_check_imprints)
  call void (i32, i32, ptr, ...) @ERR_set_error(i32 noundef 47, i32 noundef 103, ptr noundef null)
  br label %78

78:                                               ; preds = %77, %74
  %79 = load i32, ptr %11, align 4, !tbaa !16
  call void @llvm.lifetime.end.p0(i64 4, ptr %11) #7
  call void @llvm.lifetime.end.p0(i64 8, ptr %10) #7
  call void @llvm.lifetime.end.p0(i64 8, ptr %9) #7
  ret i32 %79
}