; Function Attrs: nounwind uwtable
define internal fastcc range(i32 0, 2) i32 @ts_check_imprints(ptr noundef readonly captures(address_is_null) %0, ptr noundef readonly captures(none) %1, i32 noundef %2, ptr readonly captures(none) %.16.val) unnamed_addr #0 {
  %4 = load ptr, ptr %.16.val, align 8, !tbaa !67
  %.not = icmp eq ptr %0, null
  br i1 %.not, label %19, label %5

5:                                                ; preds = %3
  %6 = load ptr, ptr %0, align 8, !tbaa !69
  %7 = load ptr, ptr %4, align 8, !tbaa !69
  %8 = tail call i32 @OBJ_cmp(ptr noundef %6, ptr noundef %7) #7
  %.not19 = icmp eq i32 %8, 0
  br i1 %.not19, label %9, label %.thread

9:                                                ; preds = %5
  %10 = getelementptr inbounds nuw i8, ptr %0, i64 8
  %11 = load ptr, ptr %10, align 8, !tbaa !76
  %.not20 = icmp eq ptr %11, null
  br i1 %.not20, label %14, label %12

12:                                               ; preds = %9
  %13 = tail call i32 @ASN1_TYPE_get(ptr noundef nonnull %11) #7
  %.not21 = icmp eq i32 %13, 5
  br i1 %.not21, label %14, label %.thread

14:                                               ; preds = %12, %9
  %15 = getelementptr inbounds nuw i8, ptr %4, i64 8
  %16 = load ptr, ptr %15, align 8, !tbaa !76
  %.not22 = icmp eq ptr %16, null
  br i1 %.not22, label %19, label %17

17:                                               ; preds = %14
  %18 = tail call i32 @ASN1_TYPE_get(ptr noundef nonnull %16) #7
  %.not23 = icmp eq i32 %18, 5
  br i1 %.not23, label %19, label %.thread

19:                                               ; preds = %14, %17, %3
  %20 = getelementptr inbounds nuw i8, ptr %.16.val, i64 8
  %21 = load ptr, ptr %20, align 8, !tbaa !77
  %22 = tail call i32 @ASN1_STRING_length(ptr noundef %21) #7
  %23 = icmp eq i32 %2, %22
  br i1 %23, label %24, label %.thread

24:                                               ; preds = %19
  %25 = load ptr, ptr %20, align 8, !tbaa !77
  %26 = tail call ptr @ASN1_STRING_get0_data(ptr noundef %25) #7
  %27 = zext i32 %2 to i64
  %bcmp = tail call i32 @bcmp(ptr %1, ptr %26, i64 %27)
  %.not5 = icmp eq i32 %bcmp, 0
  br i1 %.not5, label %28, label %.thread

.thread:                                          ; preds = %19, %17, %12, %5, %24
  tail call void @ERR_new() #7
  tail call void @ERR_set_debug(ptr noundef nonnull @.str, i32 noundef 510, ptr noundef nonnull @__func__.ts_check_imprints) #7
  tail call void (i32, i32, ptr, ...) @ERR_set_error(i32 noundef 47, i32 noundef 103, ptr noundef null) #7
  br label %28

28:                                               ; preds = %.thread, %24
  %.03 = phi i32 [ 0, %.thread ], [ 1, %24 ]
  ret i32 %.03
}